target datalayout = "e-m:e-p270:32:32-p271:32:32-p272:64:64-i64:64-i128:128-f80:128-n8:16:32:64-S128"
target triple = "x86_64-pc-linux-gnu"

%struct.ossl_passphrase_data_st = type { i32, %union.anon, i8, ptr, i64 }
%union.anon = type { %struct.anon }
%struct.anon = type { ptr, i64 }
%struct.ossl_store_ctx_st = type { ptr, ptr, ptr, ptr, ptr, i32, ptr, i32, i32, ptr, %struct.ossl_passphrase_data_st }
%struct.ossl_store_loader_st = type { ptr, ptr, ptr, ptr, ptr, ptr, ptr, ptr, ptr, ptr, ptr, ptr, ptr, i32, ptr, ptr, %struct.CRYPTO_REF_COUNT, ptr, ptr, ptr, ptr, ptr, ptr, ptr, ptr, ptr, ptr }
%struct.CRYPTO_REF_COUNT = type { i32 }

; Function Attrs: nounwind uwtable
define i32 @OSSL_STORE_eof(ptr noundef %0) #0 {
  %2 = alloca ptr, align 8
  %3 = alloca i32, align 4
  store ptr %0, ptr %2, align 8, !tbaa !19
  call void @llvm.lifetime.start.p0(i64 4, ptr %3) #8
  store i32 1, ptr %3, align 4, !tbaa !21
  %4 = load ptr, ptr %2, align 8, !tbaa !19
  %5 = getelementptr inbounds nuw %struct.ossl_store_ctx_st, ptr %4, i32 0, i32 1
  %6 = load ptr, ptr %5, align 8, !tbaa !42
  %7 = icmp ne ptr %6, null
  br i1 %7, label %8, label %18

8:                                                ; preds = %1
  %9 = load ptr, ptr %2, align 8, !tbaa !19
  %10 = getelementptr inbounds nuw %struct.ossl_store_ctx_st, ptr %9, i32 0, i32 0
  %11 = load ptr, ptr %10, align 8, !tbaa !43
  %12 = getelementptr inbounds nuw %struct.ossl_store_loader_st, ptr %11, i32 0, i32 22
  %13 = load ptr, ptr %12, align 8, !tbaa !85
  %14 = load ptr, ptr %2, align 8, !tbaa !19
  %15 = getelementptr inbounds nuw %struct.ossl_store_ctx_st, ptr %14, i32 0, i32 2
  %16 = load ptr, ptr %15, align 8, !tbaa !44
  %17 = call i32 %13(ptr noundef %16)
  store i32 %17, ptr %3, align 4, !tbaa !21
  br label %18

18:                                               ; preds = %8, %1
  %19 = load ptr, ptr %2, align 8, !tbaa !19
  %20 = getelementptr inbounds nuw %struct.ossl_store_ctx_st, ptr %19, i32 0, i32 1
  %21 = load ptr, ptr %20, align 8, !tbaa !42
  %22 = icmp eq ptr %21, null
  br i1 %22, label %23, label %33

23:                                               ; preds = %18
  %24 = load ptr, ptr %2, align 8, !tbaa !19
  %25 = getelementptr inbounds nuw %struct.ossl_store_ctx_st, ptr %24, i32 0, i32 0
  %26 = load ptr, ptr %25, align 8, !tbaa !43
  %27 = getelementptr inbounds nuw %struct.ossl_store_loader_st, ptr %26, i32 0, i32 8
  %28 = load ptr, ptr %27, align 8, !tbaa !86
  %29 = load ptr, ptr %2, align 8, !tbaa !19
  %30 = getelementptr inbounds nuw %struct.ossl_store_ctx_st, ptr %29, i32 0, i32 2
  %31 = load ptr, ptr %30, align 8, !tbaa !44
  %32 = call i32 %28(ptr noundef %31)
  store i32 %32, ptr %3, align 4, !tbaa !21
  br label %33

33:                                               ; preds = %23, %18
  %34 = load i32, ptr %3, align 4, !tbaa !21
  %35 = icmp ne i32 %34, 0
  %36 = zext i1 %35 to i32
  call void @llvm.lifetime.end.p0(i64 4, ptr %3) #8
  ret i32 %36
}