; Function Attrs: nounwind uwtable
define range(i32 0, 2) i32 @OSSL_STORE_eof(ptr noundef readonly captures(none) %0) local_unnamed_addr #0 {
  %2 = getelementptr inbounds nuw i8, ptr %0, i64 8
  %3 = load ptr, ptr %2, align 8, !tbaa !33
  %.not = icmp eq ptr %3, null
  br i1 %.not, label %.thread, label %4

4:                                                ; preds = %1
  %5 = load ptr, ptr %0, align 8, !tbaa !34
  %6 = getelementptr inbounds nuw i8, ptr %5, i64 176
  %7 = load ptr, ptr %6, align 8, !tbaa !58
  %8 = getelementptr inbounds nuw i8, ptr %0, i64 16
  %9 = load ptr, ptr %8, align 8, !tbaa !35
  %10 = tail call i32 %7(ptr noundef %9) #9
  %.pr = load ptr, ptr %2, align 8, !tbaa !33
  %11 = icmp eq ptr %.pr, null
  br i1 %11, label %.thread, label %18

.thread:                                          ; preds = %1, %4
  %12 = load ptr, ptr %0, align 8, !tbaa !34
  %13 = getelementptr inbounds nuw i8, ptr %12, i64 64
  %14 = load ptr, ptr %13, align 8, !tbaa !59
  %15 = getelementptr inbounds nuw i8, ptr %0, i64 16
  %16 = load ptr, ptr %15, align 8, !tbaa !35
  %17 = tail call i32 %14(ptr noundef %16) #9
  br label %18

18:                                               ; preds = %.thread, %4
  %.1 = phi i32 [ %17, %.thread ], [ %10, %4 ]
  %19 = icmp ne i32 %.1, 0
  %20 = zext i1 %19 to i32
  ret i32 %20
}